
program code


build/program-mips:     file format elf32-tradbigmips


Disassembly of section my_text:

00404f80 <subroutine_fnc>:
  404f80:	27bdfff8 	addiu	sp,sp,-8
  404f84:	afbe0004 	sw	s8,4(sp)
  404f88:	03a0f025 	move	s8,sp
  404f8c:	afc40008 	sw	a0,8(s8)
  404f90:	8fc20008 	lw	v0,8(s8)
  404f94:	00000000 	nop
  404f98:	2842007b 	slti	v0,v0,123
  404f9c:	10400006 	beqz	v0,404fb8 <subroutine_fnc+0x38>
  404fa0:	00000000 	nop
  404fa4:	8fc20008 	lw	v0,8(s8)
  404fa8:	00000000 	nop
  404fac:	28420061 	slti	v0,v0,97
  404fb0:	10400004 	beqz	v0,404fc4 <subroutine_fnc+0x44>
  404fb4:	00000000 	nop
  404fb8:	8fc20008 	lw	v0,8(s8)
  404fbc:	1000000c 	b	404ff0 <subroutine_fnc+0x70>
  404fc0:	00000000 	nop
  404fc4:	3c020041 	lui	v0,0x41
  404fc8:	8c426140 	lw	v0,24896(v0)
  404fcc:	00000000 	nop
  404fd0:	24430001 	addiu	v1,v0,1
  404fd4:	3c020041 	lui	v0,0x41
  404fd8:	ac436140 	sw	v1,24896(v0)
  404fdc:	8fc20008 	lw	v0,8(s8)
  404fe0:	00000000 	nop
  404fe4:	2442ffe0 	addiu	v0,v0,-32
  404fe8:	afc20008 	sw	v0,8(s8)
  404fec:	8fc20008 	lw	v0,8(s8)
  404ff0:	03c0e825 	move	sp,s8
  404ff4:	8fbe0004 	lw	s8,4(sp)
  404ff8:	27bd0008 	addiu	sp,sp,8
  404ffc:	03e00008 	jr	ra
  405000:	00000000 	nop

00405004 <toplevel_fnc>:
  405004:	27bdffc8 	addiu	sp,sp,-56
  405008:	afbf0034 	sw	ra,52(sp)
  40500c:	afbe0030 	sw	s8,48(sp)
  405010:	03a0f025 	move	s8,sp
  405014:	1000001e 	b	405090 <toplevel_fnc+0x8c>
  405018:	00000000 	nop
  40501c:	83c20028 	lb	v0,40(s8)
  405020:	00000000 	nop
  405024:	00402025 	move	a0,v0
  405028:	0c1013e0 	jal	404f80 <subroutine_fnc>
  40502c:	00000000 	nop
  405030:	00021600 	sll	v0,v0,0x18
  405034:	00021603 	sra	v0,v0,0x18
  405038:	a3c20028 	sb	v0,40(s8)
  40503c:	24040001 	li	a0,1
  405040:	27c20028 	addiu	v0,s8,40
  405044:	00402825 	move	a1,v0
  405048:	24060001 	li	a2,1
  40504c:	24020fa4 	li	v0,4004
  405050:	0000000c 	syscall
  405054:	afc70018 	sw	a3,24(s8)
  405058:	afc20024 	sw	v0,36(s8)
  40505c:	8fc20018 	lw	v0,24(s8)
  405060:	00000000 	nop
  405064:	14400004 	bnez	v0,405078 <toplevel_fnc+0x74>
  405068:	00000000 	nop
  40506c:	8fc20024 	lw	v0,36(s8)
  405070:	10000002 	b	40507c <toplevel_fnc+0x78>
  405074:	00000000 	nop
  405078:	2402ffff 	li	v0,-1
  40507c:	afc20020 	sw	v0,32(s8)
  405080:	8fc20020 	lw	v0,32(s8)
  405084:	00000000 	nop
  405088:	04400018 	bltz	v0,4050ec <toplevel_fnc+0xe8>
  40508c:	00000000 	nop
  405090:	00002025 	move	a0,zero
  405094:	27c20028 	addiu	v0,s8,40
  405098:	00402825 	move	a1,v0
  40509c:	24060001 	li	a2,1
  4050a0:	24020fa3 	li	v0,4003
  4050a4:	0000000c 	syscall
  4050a8:	afc70018 	sw	a3,24(s8)
  4050ac:	afc2001c 	sw	v0,28(s8)
  4050b0:	8fc20018 	lw	v0,24(s8)
  4050b4:	00000000 	nop
  4050b8:	14400004 	bnez	v0,4050cc <toplevel_fnc+0xc8>
  4050bc:	00000000 	nop
  4050c0:	8fc2001c 	lw	v0,28(s8)
  4050c4:	10000002 	b	4050d0 <toplevel_fnc+0xcc>
  4050c8:	00000000 	nop
  4050cc:	2402ffff 	li	v0,-1
  4050d0:	afc20020 	sw	v0,32(s8)
  4050d4:	8fc30020 	lw	v1,32(s8)
  4050d8:	24020001 	li	v0,1
  4050dc:	1062ffcf 	beq	v1,v0,40501c <toplevel_fnc+0x18>
  4050e0:	00000000 	nop
  4050e4:	10000002 	b	4050f0 <toplevel_fnc+0xec>
  4050e8:	00000000 	nop
  4050ec:	00000000 	nop
  4050f0:	3c020041 	lui	v0,0x41
  4050f4:	8c426140 	lw	v0,24896(v0)
  4050f8:	03c0e825 	move	sp,s8
  4050fc:	8fbf0034 	lw	ra,52(sp)
  405100:	8fbe0030 	lw	s8,48(sp)
  405104:	27bd0038 	addiu	sp,sp,56
  405108:	03e00008 	jr	ra
  40510c:	00000000 	nop

program data


build/program-mips:     file format elf32-tradbigmips

Contents of section my_data:
 416140 00000000                             ....            
